target datalayout = "e-m:e-p270:32:32-p271:32:32-p272:64:64-i64:64-i128:128-f80:128-n8:16:32:64-S128"
target triple = "x86_64-pc-linux-gnu"

%union.pthread_rwlock_t = type { %struct.__pthread_rwlock_arch_t }
%struct.__pthread_rwlock_arch_t = type { i32, i32, i32, i32, i32, i32, i32, i32, i8, [7 x i8], i64, i32 }
%struct.slurmctld_lock_t = type { i32, i32, i32, i32, i32 }

@slurmctld_locks = internal global [5 x %union.pthread_rwlock_t] zeroinitializer, align 16
@.str.2 = private unnamed_addr constant [32 x i8] c"%s: pthread_rwlock_unlock(): %m\00", align 1
@__func__.unlock_slurmctld = private unnamed_addr constant [17 x i8] c"unlock_slurmctld\00", align 1

; Function Attrs: nounwind uwtable
define dso_local void @unlock_slurmctld(ptr noundef byval(%struct.slurmctld_lock_t) align 8 %0) #0 {
  %2 = alloca i32, align 4
  %3 = alloca i32, align 4
  %4 = alloca i32, align 4
  %5 = alloca i32, align 4
  %6 = alloca i32, align 4
  %7 = getelementptr inbounds nuw %struct.slurmctld_lock_t, ptr %0, i32 0, i32 4
  %8 = load i32, ptr %7, align 8
  %9 = icmp ne i32 %8, 0
  br i1 %9, label %10, label %20

10:                                               ; preds = %1
  br label %11

11:                                               ; preds = %10
  call void @llvm.lifetime.start.p0(i64 4, ptr %2) #7
  %12 = call i32 @pthread_rwlock_unlock(ptr noundef getelementptr inbounds ([5 x %union.pthread_rwlock_t], ptr @slurmctld_locks, i64 0, i64 4)) #7
  store i32 %12, ptr %2, align 4
  %13 = load i32, ptr %2, align 4
  %14 = icmp ne i32 %13, 0
  br i1 %14, label %15, label %18

15:                                               ; preds = %11
  %16 = load i32, ptr %2, align 4
  %17 = call ptr @__errno_location() #8
  store i32 %16, ptr %17, align 4
  call void (ptr, ...) @fatal_abort(ptr noundef @.str.2, ptr noundef @__func__.unlock_slurmctld) #9
  unreachable

18:                                               ; preds = %11
  call void @llvm.lifetime.end.p0(i64 4, ptr %2) #7
  br label %19

19:                                               ; preds = %18
  br label %20

20:                                               ; preds = %19, %1
  %21 = getelementptr inbounds nuw %struct.slurmctld_lock_t, ptr %0, i32 0, i32 3
  %22 = load i32, ptr %21, align 4
  %23 = icmp ne i32 %22, 0
  br i1 %23, label %24, label %34

24:                                               ; preds = %20
  br label %25

25:                                               ; preds = %24
  call void @llvm.lifetime.start.p0(i64 4, ptr %3) #7
  %26 = call i32 @pthread_rwlock_unlock(ptr noundef getelementptr inbounds ([5 x %union.pthread_rwlock_t], ptr @slurmctld_locks, i64 0, i64 3)) #7
  store i32 %26, ptr %3, align 4
  %27 = load i32, ptr %3, align 4
  %28 = icmp ne i32 %27, 0
  br i1 %28, label %29, label %32

29:                                               ; preds = %25
  %30 = load i32, ptr %3, align 4
  %31 = call ptr @__errno_location() #8
  store i32 %30, ptr %31, align 4
  call void (ptr, ...) @fatal_abort(ptr noundef @.str.2, ptr noundef @__func__.unlock_slurmctld) #9
  unreachable

32:                                               ; preds = %25
  call void @llvm.lifetime.end.p0(i64 4, ptr %3) #7
  br label %33

33:                                               ; preds = %32
  br label %34

34:                                               ; preds = %33, %20
  %35 = getelementptr inbounds nuw %struct.slurmctld_lock_t, ptr %0, i32 0, i32 2
  %36 = load i32, ptr %35, align 8
  %37 = icmp ne i32 %36, 0
  br i1 %37, label %38, label %48

38:                                               ; preds = %34
  br label %39

39:                                               ; preds = %38
  call void @llvm.lifetime.start.p0(i64 4, ptr %4) #7
  %40 = call i32 @pthread_rwlock_unlock(ptr noundef getelementptr inbounds ([5 x %union.pthread_rwlock_t], ptr @slurmctld_locks, i64 0, i64 2)) #7
  store i32 %40, ptr %4, align 4
  %41 = load i32, ptr %4, align 4
  %42 = icmp ne i32 %41, 0
  br i1 %42, label %43, label %46

43:                                               ; preds = %39
  %44 = load i32, ptr %4, align 4
  %45 = call ptr @__errno_location() #8
  store i32 %44, ptr %45, align 4
  call void (ptr, ...) @fatal_abort(ptr noundef @.str.2, ptr noundef @__func__.unlock_slurmctld) #9
  unreachable

46:                                               ; preds = %39
  call void @llvm.lifetime.end.p0(i64 4, ptr %4) #7
  br label %47

47:                                               ; preds = %46
  br label %48

48:                                               ; preds = %47, %34
  %49 = getelementptr inbounds nuw %struct.slurmctld_lock_t, ptr %0, i32 0, i32 1
  %50 = load i32, ptr %49, align 4
  %51 = icmp ne i32 %50, 0
  br i1 %51, label %52, label %62

52:                                               ; preds = %48
  br label %53

53:                                               ; preds = %52
  call void @llvm.lifetime.start.p0(i64 4, ptr %5) #7
  %54 = call i32 @pthread_rwlock_unlock(ptr noundef getelementptr inbounds ([5 x %union.pthread_rwlock_t], ptr @slurmctld_locks, i64 0, i64 1)) #7
  store i32 %54, ptr %5, align 4
  %55 = load i32, ptr %5, align 4
  %56 = icmp ne i32 %55, 0
  br i1 %56, label %57, label %60

57:                                               ; preds = %53
  %58 = load i32, ptr %5, align 4
  %59 = call ptr @__errno_location() #8
  store i32 %58, ptr %59, align 4
  call void (ptr, ...) @fatal_abort(ptr noundef @.str.2, ptr noundef @__func__.unlock_slurmctld) #9
  unreachable

60:                                               ; preds = %53
  call void @llvm.lifetime.end.p0(i64 4, ptr %5) #7
  br label %61

61:                                               ; preds = %60
  br label %62

62:                                               ; preds = %61, %48
  %63 = getelementptr inbounds nuw %struct.slurmctld_lock_t, ptr %0, i32 0, i32 0
  %64 = load i32, ptr %63, align 8
  %65 = icmp ne i32 %64, 0
  br i1 %65, label %66, label %76

66:                                               ; preds = %62
  br label %67

67:                                               ; preds = %66
  call void @llvm.lifetime.start.p0(i64 4, ptr %6) #7
  %68 = call i32 @pthread_rwlock_unlock(ptr noundef @slurmctld_locks) #7
  store i32 %68, ptr %6, align 4
  %69 = load i32, ptr %6, align 4
  %70 = icmp ne i32 %69, 0
  br i1 %70, label %71, label %74

71:                                               ; preds = %67
  %72 = load i32, ptr %6, align 4
  %73 = call ptr @__errno_location() #8
  store i32 %72, ptr %73, align 4
  call void (ptr, ...) @fatal_abort(ptr noundef @.str.2, ptr noundef @__func__.unlock_slurmctld) #9
  unreachable

74:                                               ; preds = %67
  call void @llvm.lifetime.end.p0(i64 4, ptr %6) #7
  br label %75

75:                                               ; preds = %74
  br label %76

76:                                               ; preds = %75, %62
  ret void
}