; Function Attrs: nounwind uwtable
define dso_local void @unlock_slurmctld(ptr noundef readonly byval(%struct.slurmctld_lock_t) align 8 captures(none) %0) local_unnamed_addr #0 {
  %2 = getelementptr inbounds nuw i8, ptr %0, i64 16
  %3 = load i32, ptr %2, align 8
  %.not = icmp eq i32 %3, 0
  br i1 %.not, label %8, label %4

4:                                                ; preds = %1
  %5 = tail call i32 @pthread_rwlock_unlock(ptr noundef nonnull getelementptr inbounds nuw (i8, ptr @slurmctld_locks, i64 224)) #7
  %.not14 = icmp eq i32 %5, 0
  br i1 %.not14, label %8, label %6

6:                                                ; preds = %4
  %7 = tail call ptr @__errno_location() #8
  store i32 %5, ptr %7, align 4
  tail call void (ptr, ...) @fatal_abort(ptr noundef nonnull @.str.2, ptr noundef nonnull @__func__.unlock_slurmctld) #9
  unreachable

8:                                                ; preds = %4, %1
  %9 = getelementptr inbounds nuw i8, ptr %0, i64 12
  %10 = load i32, ptr %9, align 4
  %.not15 = icmp eq i32 %10, 0
  br i1 %.not15, label %15, label %11

11:                                               ; preds = %8
  %12 = tail call i32 @pthread_rwlock_unlock(ptr noundef nonnull getelementptr inbounds nuw (i8, ptr @slurmctld_locks, i64 168)) #7
  %.not16 = icmp eq i32 %12, 0
  br i1 %.not16, label %15, label %13

13:                                               ; preds = %11
  %14 = tail call ptr @__errno_location() #8
  store i32 %12, ptr %14, align 4
  tail call void (ptr, ...) @fatal_abort(ptr noundef nonnull @.str.2, ptr noundef nonnull @__func__.unlock_slurmctld) #9
  unreachable

15:                                               ; preds = %11, %8
  %16 = getelementptr inbounds nuw i8, ptr %0, i64 8
  %17 = load i32, ptr %16, align 8
  %.not17 = icmp eq i32 %17, 0
  br i1 %.not17, label %22, label %18

18:                                               ; preds = %15
  %19 = tail call i32 @pthread_rwlock_unlock(ptr noundef nonnull getelementptr inbounds nuw (i8, ptr @slurmctld_locks, i64 112)) #7
  %.not18 = icmp eq i32 %19, 0
  br i1 %.not18, label %22, label %20

20:                                               ; preds = %18
  %21 = tail call ptr @__errno_location() #8
  store i32 %19, ptr %21, align 4
  tail call void (ptr, ...) @fatal_abort(ptr noundef nonnull @.str.2, ptr noundef nonnull @__func__.unlock_slurmctld) #9
  unreachable

22:                                               ; preds = %18, %15
  %23 = getelementptr inbounds nuw i8, ptr %0, i64 4
  %24 = load i32, ptr %23, align 4
  %.not19 = icmp eq i32 %24, 0
  br i1 %.not19, label %29, label %25

25:                                               ; preds = %22
  %26 = tail call i32 @pthread_rwlock_unlock(ptr noundef nonnull getelementptr inbounds nuw (i8, ptr @slurmctld_locks, i64 56)) #7
  %.not20 = icmp eq i32 %26, 0
  br i1 %.not20, label %29, label %27

27:                                               ; preds = %25
  %28 = tail call ptr @__errno_location() #8
  store i32 %26, ptr %28, align 4
  tail call void (ptr, ...) @fatal_abort(ptr noundef nonnull @.str.2, ptr noundef nonnull @__func__.unlock_slurmctld) #9
  unreachable

29:                                               ; preds = %25, %22
  %30 = load i32, ptr %0, align 8
  %.not21 = icmp eq i32 %30, 0
  br i1 %.not21, label %35, label %31

31:                                               ; preds = %29
  %32 = tail call i32 @pthread_rwlock_unlock(ptr noundef nonnull @slurmctld_locks) #7
  %.not22 = icmp eq i32 %32, 0
  br i1 %.not22, label %35, label %33

33:                                               ; preds = %31
  %34 = tail call ptr @__errno_location() #8
  store i32 %32, ptr %34, align 4
  tail call void (ptr, ...) @fatal_abort(ptr noundef nonnull @.str.2, ptr noundef nonnull @__func__.unlock_slurmctld) #9
  unreachable

35:                                               ; preds = %31, %29
  ret void
}